; Function Attrs: mustprogress nofree norecurse nosync nounwind willreturn memory(none) uwtable
define range(i32 -1098907648, -1098901094) i32 @lv_anim_speed(i32 noundef %0) local_unnamed_addr #5 {
  %2 = icmp ugt i32 %0, 10000
  %3 = trunc i32 %0 to i16
  %.lhs.trunc.i = add i16 %3, 5
  %4 = udiv i16 %.lhs.trunc.i, 10
  %.zext.i = zext nneg i16 %4 to i32
  %5 = or disjoint i32 %.zext.i, -1098907648
  %6 = select i1 %2, i32 -1098906625, i32 %5
  ret i32 %6
}